(lp0
(dp1
S'content'
p2
Vkdfsljhlkjfd
p3
sS'country'
p4
VBulgaria
p5
sS'number'
p6
I1
sS'timestamp'
p7
S'16:48 31-01-19'
p8
sa(dp9
S'content'
p10
Vjdlsfhklajfsd 
p11
sS'country'
p12
VGermany
p13
sS'number'
p14
I2
sS'timestamp'
p15
S'16:48 31-01-19'
p16
sa(dp17
S'content'
p18
Vsdjkhljksd kjsda hkj
p19
sS'country'
p20
VAlgeria
p21
sS'number'
p22
I3
sS'timestamp'
p23
S'16:48 31-01-19'
p24
sa.