(lp0
(dp1
S'content'
p2
Vasjd fkj;dio jsalk
p3
sS'country'
p4
VIndia
p5
sS'number'
p6
I1
sS'timestamp'
p7
S'21:46 28-01-18'
p8
sa(dp9
S'content'
p10
Vjkf adiolkds oiafj dsl
p11
sS'country'
p12
VBangladesh
p13
sS'number'
p14
I2
sS'timestamp'
p15
S'21:46 28-01-18'
p16
sa(dp17
S'content'
p18
Vams lldjk f;iladk j
p19
sS'country'
p20
VPakistan
p21
sS'number'
p22
I3
sS'timestamp'
p23
S'21:46 28-01-18'
p24
sa.