(lp0
(dp1
S'content'
p2
VPakistan is a sux
p3
sS'country'
p4
VIndia
p5
sS'timestamp'
p6
S'22-01-18 14:24'
p7
sa(dp8
S'content'
p9
VHow is the weed?
p10
sS'country'
p11
VBangladesh
p12
sS'timestamp'
p13
S'22-01-18 16:28'
p14
sa(dp15
S'content'
p16
Vafsjdhkgludjskhabf
p17
sS'country'
p18
VIndia
p19
sS'timestamp'
p20
S'22-01-18 16:33'
p21
sa.