(lp0
(dp1
S'content'
p2
Vksdajf klsdaj fl;
p3
sS'country'
p4
VKenya
p5
sS'number'
p6
I1
sS'timestamp'
p7
S'10:33 02-02-18'
p8
sa(dp9
S'content'
p10
VIndia fdkja kldfs
p11
sS'country'
p12
VSaudi Arabia
p13
sS'number'
p14
I2
sS'timestamp'
p15
S'10:34 02-02-18'
p16
sa(dp17
S'content'
p18
Vskljadkld jadslk das
p19
sS'country'
p20
VIndonesia
p21
sS'number'
p22
I3
sS'timestamp'
p23
S'10:41 02-02-18'
p24
sa.