(lp0
(dp1
S'content'
p2
Vjdafk skljlk dfsa;
p3
sS'country'
p4
VIndia
p5
sS'number'
p6
I1
sS'timestamp'
p7
S'02:11 01-02-18'
p8
sa(dp9
S'content'
p10
Vif dksjj fkldjk lfds
p11
sS'country'
p12
VPeople's Republic of China
p13
sS'number'
p14
I2
sS'timestamp'
p15
S'02:11 01-02-18'
p16
sa(dp17
S'content'
p18
Vsdjakhk dfk lsaj;k
p19
sS'country'
p20
VSpain
p21
sS'number'
p22
I3
sS'timestamp'
p23
S'02:11 01-02-18'
p24
sa.